target datalayout = "e-m:e-p270:32:32-p271:32:32-p272:64:64-i64:64-f80:128-n8:16:32:64-S128"
target triple = "x86_64-pc-linux-gnu"

@.str = private unnamed_addr constant [3 x i8] c"%d\00", align 1
@.str.1 = private unnamed_addr constant [6 x i8] c"%d,%d\00", align 1

; Function Attrs: noinline nounwind uwtable
define dso_local void @main() #0 {
  %1 = alloca float, align 4
  %2 = alloca float, align 4
  %3 = alloca [300 x i32], align 16
  %4 = alloca i32, align 4
  %5 = alloca i32, align 4
  %6 = alloca i32, align 4
  %7 = alloca i32, align 4
  %8 = alloca i32, align 4
  %9 = alloca i32, align 4
  %10 = alloca [300 x i32], align 16
  store i32 0, i32* %7, align 4
  %11 = call i32 (i8*, ...) @__isoc99_scanf(i8* getelementptr inbounds ([3 x i8], [3 x i8]* @.str, i64 0, i64 0), i32* %9)
  store i32 0, i32* %8, align 4
  br label %12

12:                                               ; preds = %22, %0
  %13 = load i32, i32* %8, align 4
  %14 = load i32, i32* %9, align 4
  %15 = sub nsw i32 %14, 1
  %16 = icmp sle i32 %13, %15
  br i1 %16, label %17, label %25

17:                                               ; preds = %12
  %18 = load i32, i32* %8, align 4
  %19 = sext i32 %18 to i64
  %20 = getelementptr inbounds [300 x i32], [300 x i32]* %10, i64 0, i64 %19
  %21 = call i32 (i8*, ...) @__isoc99_scanf(i8* getelementptr inbounds ([3 x i8], [3 x i8]* @.str, i64 0, i64 0), i32* %20)
  br label %22

22:                                               ; preds = %17
  %23 = load i32, i32* %8, align 4
  %24 = add nsw i32 %23, 1
  store i32 %24, i32* %8, align 4
  br label %12

25:                                               ; preds = %12
  store i32 0, i32* %8, align 4
  br label %26

26:                                               ; preds = %38, %25
  %27 = load i32, i32* %8, align 4
  %28 = load i32, i32* %9, align 4
  %29 = sub nsw i32 %28, 1
  %30 = icmp sle i32 %27, %29
  br i1 %30, label %31, label %41

31:                                               ; preds = %26
  %32 = load i32, i32* %7, align 4
  %33 = load i32, i32* %8, align 4
  %34 = sext i32 %33 to i64
  %35 = getelementptr inbounds [300 x i32], [300 x i32]* %10, i64 0, i64 %34
  %36 = load i32, i32* %35, align 4
  %37 = add nsw i32 %32, %36
  store i32 %37, i32* %7, align 4
  br label %38

38:                                               ; preds = %31
  %39 = load i32, i32* %8, align 4
  %40 = add nsw i32 %39, 1
  store i32 %40, i32* %8, align 4
  br label %26

41:                                               ; preds = %26
  store i32 0, i32* %8, align 4
  br label %42

42:                                               ; preds = %67, %41
  %43 = load i32, i32* %8, align 4
  %44 = load i32, i32* %9, align 4
  %45 = sub nsw i32 %44, 1
  %46 = icmp sle i32 %43, %45
  br i1 %46, label %47, label %70

47:                                               ; preds = %42
  %48 = load i32, i32* %8, align 4
  %49 = sext i32 %48 to i64
  %50 = getelementptr inbounds [300 x i32], [300 x i32]* %10, i64 0, i64 %49
  %51 = load i32, i32* %50, align 4
  %52 = load i32, i32* %9, align 4
  %53 = mul nsw i32 %51, %52
  %54 = load i32, i32* %8, align 4
  %55 = sext i32 %54 to i64
  %56 = getelementptr inbounds [300 x i32], [300 x i32]* %10, i64 0, i64 %55
  store i32 %53, i32* %56, align 4
  %57 = load i32, i32* %8, align 4
  %58 = sext i32 %57 to i64
  %59 = getelementptr inbounds [300 x i32], [300 x i32]* %10, i64 0, i64 %58
  %60 = load i32, i32* %59, align 4
  %61 = load i32, i32* %7, align 4
  %62 = sub nsw i32 %60, %61
  %63 = call i32 @abs(i32 %62) #3
  %64 = load i32, i32* %8, align 4
  %65 = sext i32 %64 to i64
  %66 = getelementptr inbounds [300 x i32], [300 x i32]* %3, i64 0, i64 %65
  store i32 %63, i32* %66, align 4
  br label %67

67:                                               ; preds = %47
  %68 = load i32, i32* %8, align 4
  %69 = add nsw i32 %68, 1
  store i32 %69, i32* %8, align 4
  br label %42

70:                                               ; preds = %42
  store i32 0, i32* %8, align 4
  br label %71

71:                                               ; preds = %117, %70
  %72 = load i32, i32* %8, align 4
  %73 = load i32, i32* %9, align 4
  %74 = sub nsw i32 %73, 2
  %75 = icmp sle i32 %72, %74
  br i1 %75, label %76, label %120

76:                                               ; preds = %71
  %77 = load i32, i32* %8, align 4
  %78 = add nsw i32 %77, 1
  store i32 %78, i32* %6, align 4
  br label %79

79:                                               ; preds = %113, %76
  %80 = load i32, i32* %6, align 4
  %81 = load i32, i32* %9, align 4
  %82 = sub nsw i32 %81, 1
  %83 = icmp sle i32 %80, %82
  br i1 %83, label %84, label %116

84:                                               ; preds = %79
  %85 = load i32, i32* %8, align 4
  %86 = sext i32 %85 to i64
  %87 = getelementptr inbounds [300 x i32], [300 x i32]* %3, i64 0, i64 %86
  %88 = load i32, i32* %87, align 4
  %89 = load i32, i32* %6, align 4
  %90 = sext i32 %89 to i64
  %91 = getelementptr inbounds [300 x i32], [300 x i32]* %3, i64 0, i64 %90
  %92 = load i32, i32* %91, align 4
  %93 = icmp sle i32 %88, %92
  br i1 %93, label %94, label %112

94:                                               ; preds = %84
  %95 = load i32, i32* %8, align 4
  %96 = sext i32 %95 to i64
  %97 = getelementptr inbounds [300 x i32], [300 x i32]* %3, i64 0, i64 %96
  %98 = load i32, i32* %97, align 4
  %99 = sitofp i32 %98 to float
  store float %99, float* %1, align 4
  %100 = load i32, i32* %6, align 4
  %101 = sext i32 %100 to i64
  %102 = getelementptr inbounds [300 x i32], [300 x i32]* %3, i64 0, i64 %101
  %103 = load i32, i32* %102, align 4
  %104 = load i32, i32* %8, align 4
  %105 = sext i32 %104 to i64
  %106 = getelementptr inbounds [300 x i32], [300 x i32]* %3, i64 0, i64 %105
  store i32 %103, i32* %106, align 4
  %107 = load float, float* %1, align 4
  %108 = fptosi float %107 to i32
  %109 = load i32, i32* %6, align 4
  %110 = sext i32 %109 to i64
  %111 = getelementptr inbounds [300 x i32], [300 x i32]* %3, i64 0, i64 %110
  store i32 %108, i32* %111, align 4
  br label %112

112:                                              ; preds = %94, %84
  br label %113

113:                                              ; preds = %112
  %114 = load i32, i32* %6, align 4
  %115 = add nsw i32 %114, 1
  store i32 %115, i32* %6, align 4
  br label %79

116:                                              ; preds = %79
  br label %117

117:                                              ; preds = %116
  %118 = load i32, i32* %8, align 4
  %119 = add nsw i32 %118, 1
  store i32 %119, i32* %8, align 4
  br label %71

120:                                              ; preds = %71
  %121 = load i32, i32* %7, align 4
  %122 = getelementptr inbounds [300 x i32], [300 x i32]* %3, i64 0, i64 0
  %123 = load i32, i32* %122, align 16
  %124 = sub nsw i32 %121, %123
  %125 = load i32, i32* %9, align 4
  %126 = sdiv i32 %124, %125
  store i32 %126, i32* %4, align 4
  %127 = load i32, i32* %7, align 4
  %128 = getelementptr inbounds [300 x i32], [300 x i32]* %3, i64 0, i64 0
  %129 = load i32, i32* %128, align 16
  %130 = add nsw i32 %127, %129
  %131 = load i32, i32* %9, align 4
  %132 = sdiv i32 %130, %131
  store i32 %132, i32* %5, align 4
  %133 = getelementptr inbounds [300 x i32], [300 x i32]* %3, i64 0, i64 0
  %134 = load i32, i32* %133, align 16
  %135 = getelementptr inbounds [300 x i32], [300 x i32]* %3, i64 0, i64 1
  %136 = load i32, i32* %135, align 4
  %137 = icmp eq i32 %134, %136
  br i1 %137, label %138, label %142

138:                                              ; preds = %120
  %139 = load i32, i32* %4, align 4
  %140 = load i32, i32* %5, align 4
  %141 = call i32 (i8*, ...) @printf(i8* getelementptr inbounds ([6 x i8], [6 x i8]* @.str.1, i64 0, i64 0), i32 %139, i32 %140)
  br label %175

142:                                              ; preds = %120
  store i32 0, i32* %8, align 4
  br label %143

143:                                              ; preds = %168, %142
  %144 = load i32, i32* %8, align 4
  %145 = load i32, i32* %9, align 4
  %146 = sub nsw i32 %145, 1
  %147 = icmp sle i32 %144, %146
  br i1 %147, label %148, label %171

148:                                              ; preds = %143
  %149 = load i32, i32* %8, align 4
  %150 = sext i32 %149 to i64
  %151 = getelementptr inbounds [300 x i32], [300 x i32]* %10, i64 0, i64 %150
  %152 = load i32, i32* %151, align 4
  %153 = load i32, i32* %9, align 4
  %154 = sdiv i32 %152, %153
  %155 = load i32, i32* %8, align 4
  %156 = sext i32 %155 to i64
  %157 = getelementptr inbounds [300 x i32], [300 x i32]* %10, i64 0, i64 %156
  store i32 %154, i32* %157, align 4
  %158 = load i32, i32* %8, align 4
  %159 = sext i32 %158 to i64
  %160 = getelementptr inbounds [300 x i32], [300 x i32]* %10, i64 0, i64 %159
  %161 = load i32, i32* %160, align 4
  %162 = load i32, i32* %4, align 4
  %163 = icmp eq i32 %161, %162
  br i1 %163, label %164, label %167

164:                                              ; preds = %148
  %165 = load i32, i32* %4, align 4
  %166 = call i32 (i8*, ...) @printf(i8* getelementptr inbounds ([3 x i8], [3 x i8]* @.str, i64 0, i64 0), i32 %165)
  br label %175

167:                                              ; preds = %148
  br label %168

168:                                              ; preds = %167
  %169 = load i32, i32* %8, align 4
  %170 = add nsw i32 %169, 1
  store i32 %170, i32* %8, align 4
  br label %143

171:                                              ; preds = %143
  br label %172

172:                                              ; preds = %171
  %173 = load i32, i32* %5, align 4
  %174 = call i32 (i8*, ...) @printf(i8* getelementptr inbounds ([3 x i8], [3 x i8]* @.str, i64 0, i64 0), i32 %173)
  br label %175

175:                                              ; preds = %172, %164, %138
  %176 = load i32, i32* %8, align 4
  %177 = call i32 (i8*, ...) @__isoc99_scanf(i8* getelementptr inbounds ([3 x i8], [3 x i8]* @.str, i64 0, i64 0), i32 %176)
  ret void
}